; Function Attrs: mustprogress uwtable
define void @_ZN5ImGui13ShowUserGuideEv() local_unnamed_addr #4 {
  %1 = tail call noundef nonnull align 8 dereferenceable(3016) ptr @_ZN5ImGui5GetIOEv()
  tail call void (ptr, ...) @_ZN5ImGui10BulletTextEPKcz(ptr noundef nonnull @.str.286)
  tail call void (ptr, ...) @_ZN5ImGui10BulletTextEPKcz(ptr noundef nonnull @.str.287)
  tail call void (ptr, ...) @_ZN5ImGui10BulletTextEPKcz(ptr noundef nonnull @.str.288)
  tail call void (ptr, ...) @_ZN5ImGui10BulletTextEPKcz(ptr noundef nonnull @.str.289)
  tail call void (ptr, ...) @_ZN5ImGui10BulletTextEPKcz(ptr noundef nonnull @.str.290)
  %2 = getelementptr inbounds nuw i8, ptr %1, i64 60
  %3 = load i8, ptr %2, align 4, !tbaa !228, !range !11, !noundef !12
  %4 = trunc nuw i8 %3 to i1
  br i1 %4, label %5, label %6

5:                                                ; preds = %0
  tail call void (ptr, ...) @_ZN5ImGui10BulletTextEPKcz(ptr noundef nonnull @.str.291)
  br label %6

6:                                                ; preds = %5, %0
  tail call void (ptr, ...) @_ZN5ImGui10BulletTextEPKcz(ptr noundef nonnull @.str.292)
  tail call void @_ZN5ImGui6IndentEf(float noundef 0.000000e+00)
  tail call void (ptr, ...) @_ZN5ImGui10BulletTextEPKcz(ptr noundef nonnull @.str.293)
  tail call void (ptr, ...) @_ZN5ImGui10BulletTextEPKcz(ptr noundef nonnull @.str.294)
  tail call void (ptr, ...) @_ZN5ImGui10BulletTextEPKcz(ptr noundef nonnull @.str.295)
  tail call void (ptr, ...) @_ZN5ImGui10BulletTextEPKcz(ptr noundef nonnull @.str.296)
  tail call void (ptr, ...) @_ZN5ImGui10BulletTextEPKcz(ptr noundef nonnull @.str.297)
  tail call void @_ZN5ImGui8UnindentEf(float noundef 0.000000e+00)
  tail call void (ptr, ...) @_ZN5ImGui10BulletTextEPKcz(ptr noundef nonnull @.str.298)
  tail call void @_ZN5ImGui6IndentEf(float noundef 0.000000e+00)
  tail call void (ptr, ...) @_ZN5ImGui10BulletTextEPKcz(ptr noundef nonnull @.str.299)
  tail call void (ptr, ...) @_ZN5ImGui10BulletTextEPKcz(ptr noundef nonnull @.str.300)
  tail call void (ptr, ...) @_ZN5ImGui10BulletTextEPKcz(ptr noundef nonnull @.str.301)
  tail call void (ptr, ...) @_ZN5ImGui10BulletTextEPKcz(ptr noundef nonnull @.str.302)
  tail call void (ptr, ...) @_ZN5ImGui10BulletTextEPKcz(ptr noundef nonnull @.str.303)
  tail call void @_ZN5ImGui8UnindentEf(float noundef 0.000000e+00)
  ret void
}